; Function Attrs: nounwind uwtable
define hidden noundef zeroext i1 @SDL_SetAudioIterationCallbacks_REAL(i32 noundef %0, ptr noundef %1, ptr noundef %2, ptr noundef %3) local_unnamed_addr #0 {
  %5 = alloca ptr, align 8
  call void @llvm.lifetime.start.p0(i64 8, ptr nonnull %5) #14
  store ptr null, ptr %5, align 8
  %6 = call fastcc ptr @ObtainLogicalAudioDevice(i32 noundef %0, ptr noundef %5)
  %.not = icmp ne ptr %6, null
  br i1 %.not, label %7, label %11

7:                                                ; preds = %4
  %8 = getelementptr inbounds nuw i8, ptr %6, i64 40
  store ptr %1, ptr %8, align 8
  %9 = getelementptr inbounds nuw i8, ptr %6, i64 48
  store ptr %2, ptr %9, align 8
  %10 = getelementptr inbounds nuw i8, ptr %6, i64 56
  store ptr %3, ptr %10, align 8
  br label %11

11:                                               ; preds = %7, %4
  %12 = load ptr, ptr %5, align 8
  tail call fastcc void @ReleaseAudioDevice(ptr noundef %12)
  call void @llvm.lifetime.end.p0(i64 8, ptr nonnull %5) #14
  ret i1 %.not
}